target datalayout = "e-m:e-p270:32:32-p271:32:32-p272:64:64-i64:64-i128:128-f80:128-n8:16:32:64-S128"
target triple = "x86_64-pc-linux-gnu"

%"struct.Luau::NotNull" = type { ptr }
%"class.std::vector.88" = type { %"struct.std::_Vector_base.89" }
%"struct.std::_Vector_base.89" = type { %"struct.std::_Vector_base<const Luau::Type *, std::allocator<const Luau::Type *>>::_Vector_impl" }
%"struct.std::_Vector_base<const Luau::Type *, std::allocator<const Luau::Type *>>::_Vector_impl" = type { %"struct.std::_Vector_base<const Luau::Type *, std::allocator<const Luau::Type *>>::_Vector_impl_data" }
%"struct.std::_Vector_base<const Luau::Type *, std::allocator<const Luau::Type *>>::_Vector_impl_data" = type { ptr, ptr, ptr }
%"class.Luau::DenseHashSet.122" = type { %"class.Luau::detail::DenseHashTable.123" }
%"class.Luau::detail::DenseHashTable.123" = type <{ ptr, i64, i64, ptr, [8 x i8] }>
%"class.std::optional.202" = type { %"struct.std::_Optional_base.203" }
%"struct.std::_Optional_base.203" = type { %"struct.std::_Optional_payload.205" }
%"struct.std::_Optional_payload.205" = type { %"struct.std::_Optional_payload_base.base.207", [7 x i8] }
%"struct.std::_Optional_payload_base.base.207" = type <{ %"union.std::_Optional_payload_base<const Luau::Type *>::_Storage", i8 }>
%"union.std::_Optional_payload_base<const Luau::Type *>::_Storage" = type { ptr }
%"struct.Luau::TablePropLookupResult" = type <{ %"class.std::vector.88", %"class.std::optional.202", i8, [7 x i8] }>

; Function Attrs: mustprogress nounwind uwtable
define linkonce_odr dso_local void @_ZN4Luau6detail16ItemInterfaceSetIPKNS_4TypeEE7destroyEPS4_m(ptr noundef %0, i64 noundef %1) #2 comdat align 2 {
  %3 = alloca ptr, align 8
  %4 = alloca i64, align 8
  %5 = alloca i64, align 8
  store ptr %0, ptr %3, align 8, !tbaa !66
  store i64 %1, ptr %4, align 8, !tbaa !117
  call void @llvm.lifetime.start.p0(i64 8, ptr %5) #4
  store i64 0, ptr %5, align 8, !tbaa !117
  br label %6

6:                                                ; preds = %12, %2
  %7 = load i64, ptr %5, align 8, !tbaa !117
  %8 = load i64, ptr %4, align 8, !tbaa !117
  %9 = icmp ult i64 %7, %8
  br i1 %9, label %11, label %10

10:                                               ; preds = %6
  call void @llvm.lifetime.end.p0(i64 8, ptr %5) #4
  br label %15

11:                                               ; preds = %6
  br label %12

12:                                               ; preds = %11
  %13 = load i64, ptr %5, align 8, !tbaa !117
  %14 = add i64 %13, 1
  store i64 %14, ptr %5, align 8, !tbaa !117
  br label %6, !llvm.loop !1610

15:                                               ; preds = %10
  ret void
}

; Function Attrs: noinline noreturn nounwind uwtable
define linkonce_odr hidden void @__clang_call_terminate(ptr noundef %0) #13 comdat {
  %2 = call ptr @__cxa_begin_catch(ptr %0) #4
  call void @_ZSt9terminatev() #22
  unreachable
}

; Function Attrs: mustprogress uwtable
define linkonce_odr dso_local void @_ZN4Luau6detail14DenseHashTableIPKNS_4TypeES4_S4_NS0_16ItemInterfaceSetIS4_EENS_16DenseHashPointerESt8equal_toIS4_EE7destroyEv(ptr noundef nonnull align 8 dereferenceable(34) %0) #6 comdat align 2 {
  %2 = alloca ptr, align 8
  store ptr %0, ptr %2, align 8, !tbaa !1609
  %3 = load ptr, ptr %2, align 8
  %4 = getelementptr inbounds nuw %"class.Luau::detail::DenseHashTable.123", ptr %3, i32 0, i32 0
  %5 = load ptr, ptr %4, align 8, !tbaa !426
  %6 = getelementptr inbounds nuw %"class.Luau::detail::DenseHashTable.123", ptr %3, i32 0, i32 1
  %7 = load i64, ptr %6, align 8, !tbaa !432
  call void @_ZN4Luau6detail16ItemInterfaceSetIPKNS_4TypeEE7destroyEPS4_m(ptr noundef %5, i64 noundef %7)
  %8 = getelementptr inbounds nuw %"class.Luau::detail::DenseHashTable.123", ptr %3, i32 0, i32 0
  %9 = load ptr, ptr %8, align 8, !tbaa !426
  call void @_ZdlPv(ptr noundef %9) #4
  %10 = getelementptr inbounds nuw %"class.Luau::detail::DenseHashTable.123", ptr %3, i32 0, i32 0
  store ptr null, ptr %10, align 8, !tbaa !426
  %11 = getelementptr inbounds nuw %"class.Luau::detail::DenseHashTable.123", ptr %3, i32 0, i32 1
  store i64 0, ptr %11, align 8, !tbaa !432
  ret void
}

; Function Attrs: mustprogress nounwind uwtable
define linkonce_odr dso_local void @_ZN4Luau6detail16ItemInterfaceSetIPKNS_4TypeEE4fillEPS4_mRKS4_(ptr noundef %0, i64 noundef %1, ptr noundef nonnull align 8 dereferenceable(8) %2) #2 comdat align 2 {
  %4 = alloca ptr, align 8
  %5 = alloca i64, align 8
  %6 = alloca ptr, align 8
  %7 = alloca i64, align 8
  store ptr %0, ptr %4, align 8, !tbaa !66
  store i64 %1, ptr %5, align 8, !tbaa !117
  store ptr %2, ptr %6, align 8, !tbaa !66
  call void @llvm.lifetime.start.p0(i64 8, ptr %7) #4
  store i64 0, ptr %7, align 8, !tbaa !117
  br label %8

8:                                                ; preds = %19, %3
  %9 = load i64, ptr %7, align 8, !tbaa !117
  %10 = load i64, ptr %5, align 8, !tbaa !117
  %11 = icmp ult i64 %9, %10
  br i1 %11, label %13, label %12

12:                                               ; preds = %8
  call void @llvm.lifetime.end.p0(i64 8, ptr %7) #4
  br label %22

13:                                               ; preds = %8
  %14 = load ptr, ptr %4, align 8, !tbaa !66
  %15 = load i64, ptr %7, align 8, !tbaa !117
  %16 = getelementptr inbounds nuw ptr, ptr %14, i64 %15
  %17 = load ptr, ptr %6, align 8, !tbaa !66
  %18 = load ptr, ptr %17, align 8, !tbaa !44
  store ptr %18, ptr %16, align 8, !tbaa !44
  br label %19

19:                                               ; preds = %13
  %20 = load i64, ptr %7, align 8, !tbaa !117
  %21 = add i64 %20, 1
  store i64 %21, ptr %7, align 8, !tbaa !117
  br label %8, !llvm.loop !2678

22:                                               ; preds = %12
  ret void
}

; Function Attrs: mustprogress nounwind uwtable
define linkonce_odr dso_local void @_ZN4Luau6detail14DenseHashTableIPKNS_4TypeES4_S4_NS0_16ItemInterfaceSetIS4_EENS_16DenseHashPointerESt8equal_toIS4_EED2Ev(ptr noundef nonnull align 8 dereferenceable(34) %0) unnamed_addr #2 comdat align 2 personality ptr @__gxx_personality_v0 {
  %2 = alloca ptr, align 8
  store ptr %0, ptr %2, align 8, !tbaa !1609
  %3 = load ptr, ptr %2, align 8
  %4 = getelementptr inbounds nuw %"class.Luau::detail::DenseHashTable.123", ptr %3, i32 0, i32 0
  %5 = load ptr, ptr %4, align 8, !tbaa !426
  %6 = icmp ne ptr %5, null
  br i1 %6, label %7, label %9

7:                                                ; preds = %1
  invoke void @_ZN4Luau6detail14DenseHashTableIPKNS_4TypeES4_S4_NS0_16ItemInterfaceSetIS4_EENS_16DenseHashPointerESt8equal_toIS4_EE7destroyEv(ptr noundef nonnull align 8 dereferenceable(34) %3)
          to label %8 unwind label %10

8:                                                ; preds = %7
  br label %9

9:                                                ; preds = %8, %1
  ret void

10:                                               ; preds = %7
  %11 = landingpad { ptr, i32 }
          catch ptr null
  %12 = extractvalue { ptr, i32 } %11, 0
  call void @__clang_call_terminate(ptr %12) #22
  unreachable
}

; Function Attrs: mustprogress uwtable
define linkonce_odr dso_local void @_ZN4Luau6detail14DenseHashTableIPKNS_4TypeES4_S4_NS0_16ItemInterfaceSetIS4_EENS_16DenseHashPointerESt8equal_toIS4_EEC2ERKS4_m(ptr noundef nonnull align 8 dereferenceable(34) %0, ptr noundef nonnull align 8 dereferenceable(8) %1, i64 noundef %2) unnamed_addr #6 comdat align 2 {
  %4 = alloca ptr, align 8
  %5 = alloca ptr, align 8
  %6 = alloca i64, align 8
  store ptr %0, ptr %4, align 8, !tbaa !1609
  store ptr %1, ptr %5, align 8, !tbaa !66
  store i64 %2, ptr %6, align 8, !tbaa !117
  %7 = load ptr, ptr %4, align 8
  %8 = getelementptr inbounds nuw %"class.Luau::detail::DenseHashTable.123", ptr %7, i32 0, i32 0
  store ptr null, ptr %8, align 8, !tbaa !426
  %9 = getelementptr inbounds nuw %"class.Luau::detail::DenseHashTable.123", ptr %7, i32 0, i32 1
  store i64 0, ptr %9, align 8, !tbaa !432
  %10 = getelementptr inbounds nuw %"class.Luau::detail::DenseHashTable.123", ptr %7, i32 0, i32 2
  store i64 0, ptr %10, align 8, !tbaa !2676
  %11 = getelementptr inbounds nuw %"class.Luau::detail::DenseHashTable.123", ptr %7, i32 0, i32 3
  %12 = load ptr, ptr %5, align 8, !tbaa !66
  %13 = load ptr, ptr %12, align 8, !tbaa !44
  store ptr %13, ptr %11, align 8, !tbaa !2677
  %14 = load i64, ptr %6, align 8, !tbaa !117
  %15 = icmp ne i64 %14, 0
  br i1 %15, label %16, label %27

16:                                               ; preds = %3
  %17 = load i64, ptr %6, align 8, !tbaa !117
  %18 = mul i64 8, %17
  %19 = call noalias noundef nonnull ptr @_Znwm(i64 noundef %18) #27
  %20 = getelementptr inbounds nuw %"class.Luau::detail::DenseHashTable.123", ptr %7, i32 0, i32 0
  store ptr %19, ptr %20, align 8, !tbaa !426
  %21 = load i64, ptr %6, align 8, !tbaa !117
  %22 = getelementptr inbounds nuw %"class.Luau::detail::DenseHashTable.123", ptr %7, i32 0, i32 1
  store i64 %21, ptr %22, align 8, !tbaa !432
  %23 = getelementptr inbounds nuw %"class.Luau::detail::DenseHashTable.123", ptr %7, i32 0, i32 0
  %24 = load ptr, ptr %23, align 8, !tbaa !426
  %25 = load i64, ptr %6, align 8, !tbaa !117
  %26 = load ptr, ptr %5, align 8, !tbaa !66
  call void @_ZN4Luau6detail16ItemInterfaceSetIPKNS_4TypeEE4fillEPS4_mRKS4_(ptr noundef %24, i64 noundef %25, ptr noundef nonnull align 8 dereferenceable(8) %26)
  br label %27

27:                                               ; preds = %16, %3
  ret void
}

; Function Attrs: inlinehint mustprogress nounwind uwtable
define linkonce_odr dso_local void @_ZN4Luau12DenseHashSetIPKNS_4TypeENS_16DenseHashPointerESt8equal_toIS3_EED2Ev(ptr noundef nonnull align 8 dereferenceable(40) %0) unnamed_addr #3 comdat align 2 {
  %2 = alloca ptr, align 8
  store ptr %0, ptr %2, align 8, !tbaa !370
  %3 = load ptr, ptr %2, align 8
  %4 = getelementptr inbounds nuw %"class.Luau::DenseHashSet.122", ptr %3, i32 0, i32 0
  call void @_ZN4Luau6detail14DenseHashTableIPKNS_4TypeES4_S4_NS0_16ItemInterfaceSetIS4_EENS_16DenseHashPointerESt8equal_toIS4_EED2Ev(ptr noundef nonnull align 8 dereferenceable(34) %4) #4
  ret void
}

; Function Attrs: mustprogress uwtable
define linkonce_odr dso_local void @_ZN4Luau12DenseHashSetIPKNS_4TypeENS_16DenseHashPointerESt8equal_toIS3_EEC2ERKS3_m(ptr noundef nonnull align 8 dereferenceable(40) %0, ptr noundef nonnull align 8 dereferenceable(8) %1, i64 noundef %2) unnamed_addr #6 comdat align 2 {
  %4 = alloca ptr, align 8
  %5 = alloca ptr, align 8
  %6 = alloca i64, align 8
  store ptr %0, ptr %4, align 8, !tbaa !370
  store ptr %1, ptr %5, align 8, !tbaa !66
  store i64 %2, ptr %6, align 8, !tbaa !117
  %7 = load ptr, ptr %4, align 8
  %8 = getelementptr inbounds nuw %"class.Luau::DenseHashSet.122", ptr %7, i32 0, i32 0
  %9 = load ptr, ptr %5, align 8, !tbaa !66
  %10 = load i64, ptr %6, align 8, !tbaa !117
  call void @_ZN4Luau6detail14DenseHashTableIPKNS_4TypeES4_S4_NS0_16ItemInterfaceSetIS4_EENS_16DenseHashPointerESt8equal_toIS4_EEC2ERKS4_m(ptr noundef nonnull align 8 dereferenceable(34) %8, ptr noundef nonnull align 8 dereferenceable(8) %9, i64 noundef %10)
  ret void
}

; Function Attrs: mustprogress uwtable
define dso_local void @_ZN4Luau16ConstraintSolver15lookupTablePropENS_7NotNullIKNS_10ConstraintEEEPKNS_4TypeERKNSt7__cxx1112basic_stringIcSt11char_traitsIcESaIcEEENS_12ValueContextEbb(ptr dead_on_unwind noalias writable sret(%"struct.Luau::TablePropLookupResult") align 8 %0, ptr noundef nonnull align 8 dereferenceable(1032) %1, ptr %2, ptr noundef %3, ptr noundef nonnull align 8 dereferenceable(32) %4, i32 noundef %5, i1 noundef zeroext %6, i1 noundef zeroext %7) #6 align 2 personality ptr @__gxx_personality_v0 {
  %9 = alloca ptr, align 8
  %10 = alloca %"struct.Luau::NotNull", align 8
  %11 = alloca ptr, align 8
  %12 = alloca ptr, align 8
  %13 = alloca ptr, align 8
  %14 = alloca i32, align 4
  %15 = alloca i8, align 1
  %16 = alloca i8, align 1
  %17 = alloca %"class.Luau::DenseHashSet.122", align 8
  %18 = alloca ptr, align 8
  %19 = alloca %"struct.Luau::NotNull", align 8
  %20 = alloca ptr, align 8
  %21 = alloca i32, align 4
  store ptr %0, ptr %9, align 8
  %22 = getelementptr inbounds nuw %"struct.Luau::NotNull", ptr %10, i32 0, i32 0
  store ptr %2, ptr %22, align 8
  store ptr %1, ptr %11, align 8, !tbaa !42
  store ptr %3, ptr %12, align 8, !tbaa !44
  store ptr %4, ptr %13, align 8, !tbaa !222
  store i32 %5, ptr %14, align 4, !tbaa !1056
  %23 = zext i1 %6 to i8
  store i8 %23, ptr %15, align 1, !tbaa !26
  %24 = zext i1 %7 to i8
  store i8 %24, ptr %16, align 1, !tbaa !26
  %25 = load ptr, ptr %11, align 8
  call void @llvm.lifetime.start.p0(i64 40, ptr %17) #4
  call void @llvm.lifetime.start.p0(i64 8, ptr %18) #4
  store ptr null, ptr %18, align 8, !tbaa !44
  call void @_ZN4Luau12DenseHashSetIPKNS_4TypeENS_16DenseHashPointerESt8equal_toIS3_EEC2ERKS3_m(ptr noundef nonnull align 8 dereferenceable(40) %17, ptr noundef nonnull align 8 dereferenceable(8) %18, i64 noundef 0)
  call void @llvm.lifetime.end.p0(i64 8, ptr %18) #4
  call void @llvm.memcpy.p0.p0.i64(ptr align 8 %19, ptr align 8 %10, i64 8, i1 false), !tbaa.struct !59
  %26 = load ptr, ptr %12, align 8, !tbaa !44
  %27 = load ptr, ptr %13, align 8, !tbaa !222
  %28 = load i32, ptr %14, align 4, !tbaa !1056
  %29 = load i8, ptr %15, align 1, !tbaa !26, !range !28, !noundef !29
  %30 = trunc i8 %29 to i1
  %31 = load i8, ptr %16, align 1, !tbaa !26, !range !28, !noundef !29
  %32 = trunc i8 %31 to i1
  %33 = getelementptr inbounds nuw %"struct.Luau::NotNull", ptr %19, i32 0, i32 0
  %34 = load ptr, ptr %33, align 8
  invoke void @_ZN4Luau16ConstraintSolver15lookupTablePropENS_7NotNullIKNS_10ConstraintEEEPKNS_4TypeERKNSt7__cxx1112basic_stringIcSt11char_traitsIcESaIcEEENS_12ValueContextEbbRNS_12DenseHashSetIS7_NS_16DenseHashPointerESt8equal_toIS7_EEE(ptr dead_on_unwind writable sret(%"struct.Luau::TablePropLookupResult") align 8 %0, ptr noundef nonnull align 8 dereferenceable(1032) %25, ptr %34, ptr noundef %26, ptr noundef nonnull align 8 dereferenceable(32) %27, i32 noundef %28, i1 noundef zeroext %30, i1 noundef zeroext %32, ptr noundef nonnull align 8 dereferenceable(40) %17)
          to label %35 unwind label %36

35:                                               ; preds = %8
  call void @_ZN4Luau12DenseHashSetIPKNS_4TypeENS_16DenseHashPointerESt8equal_toIS3_EED2Ev(ptr noundef nonnull align 8 dereferenceable(40) %17) #4
  call void @llvm.lifetime.end.p0(i64 40, ptr %17) #4
  ret void

36:                                               ; preds = %8
  %37 = landingpad { ptr, i32 }
          cleanup
  %38 = extractvalue { ptr, i32 } %37, 0
  store ptr %38, ptr %20, align 8
  %39 = extractvalue { ptr, i32 } %37, 1
  store i32 %39, ptr %21, align 4
  call void @_ZN4Luau12DenseHashSetIPKNS_4TypeENS_16DenseHashPointerESt8equal_toIS3_EED2Ev(ptr noundef nonnull align 8 dereferenceable(40) %17) #4
  call void @llvm.lifetime.end.p0(i64 40, ptr %17) #4
  br label %40

40:                                               ; preds = %36
  %41 = load ptr, ptr %20, align 8
  %42 = load i32, ptr %21, align 4
  %43 = insertvalue { ptr, i32 } poison, ptr %41, 0
  %44 = insertvalue { ptr, i32 } %43, i32 %42, 1
  resume { ptr, i32 } %44
}