; Function Attrs: mustprogress uwtable
define dso_local void @_ZN4Luau16ConstraintSolver15lookupTablePropENS_7NotNullIKNS_10ConstraintEEEPKNS_4TypeERKNSt7__cxx1112basic_stringIcSt11char_traitsIcESaIcEEENS_12ValueContextEbb(ptr dead_on_unwind noalias writable sret(%"struct.Luau::TablePropLookupResult") align 8 %0, ptr noundef nonnull align 8 dereferenceable(1032) %1, ptr %2, ptr noundef %3, ptr noundef nonnull align 8 dereferenceable(32) %4, i32 noundef %5, i1 noundef zeroext %6, i1 noundef zeroext %7) local_unnamed_addr #4 align 2 personality ptr @__gxx_personality_v0 {
  %9 = alloca %"class.Luau::DenseHashSet.122", align 8
  call void @llvm.lifetime.start.p0(i64 40, ptr nonnull %9) #34
  call void @llvm.memset.p0.i64(ptr noundef nonnull align 8 dereferenceable(32) %9, i8 0, i64 32, i1 false)
  invoke void @_ZN4Luau16ConstraintSolver15lookupTablePropENS_7NotNullIKNS_10ConstraintEEEPKNS_4TypeERKNSt7__cxx1112basic_stringIcSt11char_traitsIcESaIcEEENS_12ValueContextEbbRNS_12DenseHashSetIS7_NS_16DenseHashPointerESt8equal_toIS7_EEE(ptr dead_on_unwind writable sret(%"struct.Luau::TablePropLookupResult") align 8 %0, ptr noundef nonnull align 8 dereferenceable(1032) %1, ptr %2, ptr noundef %3, ptr noundef nonnull align 8 dereferenceable(32) %4, i32 noundef %5, i1 noundef zeroext %6, i1 noundef zeroext %7, ptr noundef nonnull align 8 dereferenceable(40) %9)
          to label %10 unwind label %13

10:                                               ; preds = %8
  %11 = load ptr, ptr %9, align 8, !tbaa !380
  %.not.i.i = icmp eq ptr %11, null
  br i1 %.not.i.i, label %_ZN4Luau12DenseHashSetIPKNS_4TypeENS_16DenseHashPointerESt8equal_toIS3_EED2Ev.exit, label %12

12:                                               ; preds = %10
  call void @_ZdlPv(ptr noundef nonnull %11) #34
  br label %_ZN4Luau12DenseHashSetIPKNS_4TypeENS_16DenseHashPointerESt8equal_toIS3_EED2Ev.exit

_ZN4Luau12DenseHashSetIPKNS_4TypeENS_16DenseHashPointerESt8equal_toIS3_EED2Ev.exit: ; preds = %10, %12
  call void @llvm.lifetime.end.p0(i64 40, ptr nonnull %9) #34
  ret void

13:                                               ; preds = %8
  %14 = landingpad { ptr, i32 }
          cleanup
  %15 = load ptr, ptr %9, align 8, !tbaa !380
  %.not.i.i8 = icmp eq ptr %15, null
  br i1 %.not.i.i8, label %_ZN4Luau12DenseHashSetIPKNS_4TypeENS_16DenseHashPointerESt8equal_toIS3_EED2Ev.exit9, label %16

16:                                               ; preds = %13
  call void @_ZdlPv(ptr noundef nonnull %15) #34
  br label %_ZN4Luau12DenseHashSetIPKNS_4TypeENS_16DenseHashPointerESt8equal_toIS3_EED2Ev.exit9

_ZN4Luau12DenseHashSetIPKNS_4TypeENS_16DenseHashPointerESt8equal_toIS3_EED2Ev.exit9: ; preds = %13, %16
  call void @llvm.lifetime.end.p0(i64 40, ptr nonnull %9) #34
  resume { ptr, i32 } %14
}